target datalayout = "e-m:e-p270:32:32-p271:32:32-p272:64:64-i64:64-i128:128-f80:128-n8:16:32:64-S128"
target triple = "x86_64-pc-linux-gnu"

@do_fips = internal global i32 0, align 4
@.str.18 = private unnamed_addr constant [30 x i8] c"../openssl/test/threadstest.c\00", align 1
@.str.137 = private unnamed_addr constant [19 x i8] c"FIPS not supported\00", align 1
@fips_provider = internal global [2 x ptr] [ptr @.str.14, ptr null], align 16

; Function Attrs: nounwind uwtable
define internal i32 @test_multi_general_worker_fips_provider() #0 {
  %1 = alloca i32, align 4
  %2 = load i32, ptr @do_fips, align 4, !tbaa !4
  %3 = icmp ne i32 %2, 0
  br i1 %3, label %6, label %4

4:                                                ; preds = %0
  %5 = call i32 (ptr, i32, ptr, ...) @test_skip(ptr noundef @.str.18, i32 noundef 960, ptr noundef @.str.137)
  store i32 %5, ptr %1, align 4
  br label %8

6:                                                ; preds = %0
  %7 = call i32 @thread_run_test(ptr noundef @thread_general_worker, i64 noundef 2, ptr noundef @thread_general_worker, i32 noundef 1, ptr noundef @fips_provider)
  store i32 %7, ptr %1, align 4
  br label %8

8:                                                ; preds = %6, %4
  %9 = load i32, ptr %1, align 4
  ret i32 %9
}