; Function Attrs: nounwind uwtable
define internal i32 @test_multi_general_worker_fips_provider() #1 {
  %.b = load i1, ptr @do_fips, align 4
  br i1 %.b, label %3, label %1

1:                                                ; preds = %0
  %2 = tail call i32 (ptr, i32, ptr, ...) @test_skip(ptr noundef nonnull @.str.18, i32 noundef 960, ptr noundef nonnull @.str.137) #11
  br label %5

3:                                                ; preds = %0
  %4 = tail call fastcc i32 @thread_run_test(ptr noundef nonnull @thread_general_worker, i64 noundef 2, ptr noundef nonnull @thread_general_worker, i32 noundef 1, ptr noundef nonnull @fips_provider)
  br label %5

5:                                                ; preds = %3, %1
  %.0 = phi i32 [ %4, %3 ], [ %2, %1 ]
  ret i32 %.0
}